(dp1
S'host_mass'
p2
cnumpy.core.multiarray
scalar
p3
(cnumpy
dtype
p4
(S'f8'
I0
I1
tRp5
(I3
S'<'
NNNI-1
I-1
I0
tbS'\xf8N\x90_\xd4\x99cB'
tRp6
sS'host_rh'
p7
g3
(g5
S'\xcc\xf0N\xc8^!L@'
tRp8
sS'host_rmax'
p9
g3
(g5
S'\xbb\xfeE\xeb\xa5$O@'
tRp10
sS'host_center'
p11
cnumpy.core.multiarray
_reconstruct
p12
(cnumpy
ndarray
p13
(I0
tS'b'
tRp14
(I1
(I3
tg5
I00
S'\xdb?\xdcE~\n\xe0@Z\xb50o\x9b\xe9\xe0@j\xde\xf9\xf8\x93w\xdf@'
tbs.