(dp1
S'host_mass'
p2
cnumpy.core.multiarray
scalar
p3
(cnumpy
dtype
p4
(S'f8'
I0
I1
tRp5
(I3
S'<'
NNNI-1
I-1
I0
tbS'\xae\x18z\x8f\x1c\x04fB'
tRp6
sS'host_rh'
p7
g3
(g5
S'\x86\xbb\x03\x97\x10\xefN@'
tRp8
sS'host_rmax'
p9
g3
(g5
S'\\\xa3\xa3%\xcf\xd1P@'
tRp10
sS'host_center'
p11
cnumpy.core.multiarray
_reconstruct
p12
(cnumpy
ndarray
p13
(I0
tS'b'
tRp14
(I1
(I3
tg5
I00
S'\xd6u\xa1U{\n\xe0@\xfcB\xaf\x932\xea\xe0@!fH\x84vw\xdf@'
tbs.