(dp1
S'host_mass'
p2
cnumpy.core.multiarray
scalar
p3
(cnumpy
dtype
p4
(S'f8'
I0
I1
tRp5
(I3
S'<'
NNNI-1
I-1
I0
tbS'\xef\x9c\x03\xd2U\x91WB'
tRp6
sS'host_rh'
p7
g3
(g5
S'!D{\xdaVVG@'
tRp8
sS'host_rmax'
p9
g3
(g5
S'\xcb}\xba\x84\x8a\x17J@'
tRp10
sS'host_center'
p11
cnumpy.core.multiarray
_reconstruct
p12
(cnumpy
ndarray
p13
(I0
tS'b'
tRp14
(I1
(I3
tg5
I00
S'\xf4G\xaa\xfc\xb49\xe0@OG\xca\xbd\xde\xea\xe0@>H:I\xf7\xed\xdf@'
tbs.