(dp1
S'host_mass'
p2
cnumpy.core.multiarray
scalar
p3
(cnumpy
dtype
p4
(S'f8'
I0
I1
tRp5
(I3
S'<'
NNNI-1
I-1
I0
tbS')\xf9\x18\x06N-YB'
tRp6
sS'host_rh'
p7
g3
(g5
S';Jk\xe1\xaePG@'
tRp8
sS'host_rmax'
p9
g3
(g5
S'\xf6\xf1iK\x88tJ@'
tRp10
sS'host_center'
p11
cnumpy.core.multiarray
_reconstruct
p12
(cnumpy
ndarray
p13
(I0
tS'b'
tRp14
(I1
(I3
tg5
I00
S'\x0et\xef\xb4\xc99\xe0@\xfe\x0b\x1a\xe1\xde\xea\xe0@=\x00\\p7\xee\xdf@'
tbs.