(dp1
S'host_mass'
p2
cnumpy.core.multiarray
scalar
p3
(cnumpy
dtype
p4
(S'f8'
I0
I1
tRp5
(I3
S'<'
NNNI-1
I-1
I0
tbS'\xfa\xb5\x8a\xee\n\x84nB'
tRp6
sS'host_rh'
p7
g3
(g5
S'\xef~\x01\xd0\xa9#J@'
tRp8
sS'host_rmax'
p9
g3
(g5
S'\x05\xed \xb6\xc5L@@'
tRp10
sS'host_center'
p11
cnumpy.core.multiarray
_reconstruct
p12
(cnumpy
ndarray
p13
(I0
tS'b'
tRp14
(I1
(I3
tg5
I00
S'\\\x15X\x88\xb7v\xdf@\xd2\x0e\x7f\xd4F\xe0\xe0@"\xfcfd\xb7\xba\xde@'
tbs.